; Function Attrs: nounwind uwtable
define void @Saig_SynchInitPisRandom(ptr noundef readonly captures(none) %0, ptr noundef readonly captures(none) %1, i32 noundef %2) local_unnamed_addr #3 {
  %4 = getelementptr i8, ptr %0, i64 108
  %.val1315 = load i32, ptr %4, align 4, !tbaa !28
  %5 = icmp sgt i32 %.val1315, 0
  br i1 %5, label %.lr.ph18, label %.critedge

.lr.ph18:                                         ; preds = %3
  %6 = getelementptr inbounds nuw i8, ptr %0, i64 16
  %7 = getelementptr i8, ptr %1, i64 8
  %8 = icmp sgt i32 %2, 0
  br i1 %8, label %.lr.ph.us.preheader, label %.critedge

.lr.ph.us.preheader:                              ; preds = %.lr.ph18
  %wide.trip.count = zext nneg i32 %2 to i64
  br label %.lr.ph.us

.lr.ph.us:                                        ; preds = %.lr.ph.us.preheader, %._crit_edge.us
  %indvars.iv21 = phi i64 [ 0, %.lr.ph.us.preheader ], [ %indvars.iv.next22, %._crit_edge.us ]
  %9 = load ptr, ptr %6, align 8, !tbaa !27
  %10 = getelementptr i8, ptr %9, i64 8
  %.val12.us = load ptr, ptr %10, align 8, !tbaa !3
  %11 = getelementptr inbounds nuw ptr, ptr %.val12.us, i64 %indvars.iv21
  %12 = load ptr, ptr %11, align 8, !tbaa !24
  %13 = getelementptr inbounds nuw i8, ptr %12, i64 36
  %14 = load i32, ptr %13, align 4, !tbaa !23
  %.val.us = load ptr, ptr %7, align 8, !tbaa !3
  %15 = sext i32 %14 to i64
  %16 = getelementptr inbounds ptr, ptr %.val.us, i64 %15
  %17 = load ptr, ptr %16, align 8, !tbaa !24
  br label %18

18:                                               ; preds = %.lr.ph.us, %18
  %indvars.iv = phi i64 [ 0, %.lr.ph.us ], [ %indvars.iv.next, %18 ]
  %19 = tail call i32 @Aig_ManRandom(i32 noundef 0) #18
  %20 = and i32 %19, 1431655765
  %21 = getelementptr inbounds nuw i32, ptr %17, i64 %indvars.iv
  store i32 %20, ptr %21, align 4, !tbaa !25
  %indvars.iv.next = add nuw nsw i64 %indvars.iv, 1
  %exitcond.not = icmp eq i64 %indvars.iv.next, %wide.trip.count
  br i1 %exitcond.not, label %._crit_edge.us, label %18, !llvm.loop !33

._crit_edge.us:                                   ; preds = %18
  %indvars.iv.next22 = add nuw nsw i64 %indvars.iv21, 1
  %.val13.us = load i32, ptr %4, align 4, !tbaa !28
  %22 = sext i32 %.val13.us to i64
  %23 = icmp slt i64 %indvars.iv.next22, %22
  br i1 %23, label %.lr.ph.us, label %.critedge, !llvm.loop !34

.critedge:                                        ; preds = %._crit_edge.us, %.lr.ph18, %3
  ret void
}